; Function Attrs: mustprogress uwtable
define dso_local noundef i32 @_ZN18DFSRndNumGenerator12revisit_nodeEPNS_11SearchStateEiiPK6FilterPKNSt7__cxx1112basic_stringIcSt11char_traitsIcESaIcEEE(ptr nocapture noundef nonnull readonly align 8 dereferenceable(96) %0, ptr nocapture noundef readonly %1, i32 noundef %2, i32 noundef %3, ptr noundef %4, ptr nocapture readnone %5) local_unnamed_addr #6 align 2 personality ptr @__gxx_personality_v0 {
  %7 = alloca %"class.std::__cxx11::basic_string", align 8
  %8 = alloca %"class.std::allocator", align 1
  %9 = alloca %"class.std::__cxx11::basic_string", align 8
  %10 = alloca %"class.std::allocator", align 1
  %11 = getelementptr inbounds i8, ptr %1, i64 4
  %12 = load i32, ptr %11, align 4
  %.not = icmp eq ptr %4, null
  br i1 %.not, label %38, label %13

13:                                               ; preds = %6
  %.not24 = icmp slt i32 %12, %3
  br i1 %.not24, label %32, label %14

14:                                               ; preds = %13
  call void @_ZNSaIcEC1Ev(ptr noundef nonnull align 1 dereferenceable(1) %8) #18
  invoke void @_ZNSt7__cxx1112basic_stringIcSt11char_traitsIcESaIcEEC1EPKcRKS3_(ptr noundef nonnull align 8 dereferenceable(32) %7, ptr noundef nonnull @.str.5, ptr noundef nonnull align 1 dereferenceable(1) %8)
          to label %15 unwind label %24

15:                                               ; preds = %14
  invoke void @_ZN18DFSRndNumGenerator11SearchState4dumpERKNSt7__cxx1112basic_stringIcSt11char_traitsIcESaIcEEE(ptr noundef nonnull align 4 dereferenceable(16) %1, ptr noundef nonnull align 8 dereferenceable(32) %7)
          to label %16 unwind label %26

16:                                               ; preds = %15
  call void @_ZNSt7__cxx1112basic_stringIcSt11char_traitsIcESaIcEED1Ev(ptr noundef nonnull align 8 dereferenceable(32) %7) #18
  call void @_ZNSaIcED1Ev(ptr noundef nonnull align 1 dereferenceable(1) %8) #18
  call void @_ZNSaIcEC1Ev(ptr noundef nonnull align 1 dereferenceable(1) %10) #18
  invoke void @_ZNSt7__cxx1112basic_stringIcSt11char_traitsIcESaIcEEC1EPKcRKS3_(ptr noundef nonnull align 8 dereferenceable(32) %9, ptr noundef nonnull @.str.5, ptr noundef nonnull align 1 dereferenceable(1) %10)
          to label %17 unwind label %28

17:                                               ; preds = %16
  invoke void @_ZN18DFSRndNumGenerator16dumpCurrentStateEiRKNSt7__cxx1112basic_stringIcSt11char_traitsIcESaIcEEE(ptr noundef nonnull align 8 dereferenceable(96) %0, i32 noundef %3, ptr noundef nonnull align 8 dereferenceable(32) %9)
          to label %18 unwind label %30

18:                                               ; preds = %17
  call void @_ZNSt7__cxx1112basic_stringIcSt11char_traitsIcESaIcEED1Ev(ptr noundef nonnull align 8 dereferenceable(32) %9) #18
  call void @_ZNSaIcED1Ev(ptr noundef nonnull align 1 dereferenceable(1) %10) #18
  %19 = call noundef nonnull align 8 dereferenceable(8) ptr @_ZStlsISt11char_traitsIcEERSt13basic_ostreamIcT_ES5_PKc(ptr noundef nonnull align 8 dereferenceable(8) @_ZSt4cout, ptr noundef nonnull @.str.11)
  %20 = call noundef nonnull align 8 dereferenceable(8) ptr @_ZNSolsEi(ptr noundef nonnull align 8 dereferenceable(8) %19, i32 noundef %12)
  %21 = call noundef nonnull align 8 dereferenceable(8) ptr @_ZStlsISt11char_traitsIcEERSt13basic_ostreamIcT_ES5_PKc(ptr noundef nonnull align 8 dereferenceable(8) %20, ptr noundef nonnull @.str.4)
  %22 = call noundef nonnull align 8 dereferenceable(8) ptr @_ZNSolsEi(ptr noundef nonnull align 8 dereferenceable(8) %21, i32 noundef %3)
  %23 = call noundef nonnull align 8 dereferenceable(8) ptr @_ZNSolsEPFRSoS_E(ptr noundef nonnull align 8 dereferenceable(8) %22, ptr noundef nonnull @_ZSt4endlIcSt11char_traitsIcEERSt13basic_ostreamIT_T0_ES6_)
  br label %32

24:                                               ; preds = %14
  %25 = landingpad { ptr, i32 }
          cleanup
  br label %45

26:                                               ; preds = %15
  %27 = landingpad { ptr, i32 }
          cleanup
  call void @_ZNSt7__cxx1112basic_stringIcSt11char_traitsIcESaIcEED1Ev(ptr noundef nonnull align 8 dereferenceable(32) %7) #18
  br label %45

28:                                               ; preds = %16
  %29 = landingpad { ptr, i32 }
          cleanup
  br label %45

30:                                               ; preds = %17
  %31 = landingpad { ptr, i32 }
          cleanup
  call void @_ZNSt7__cxx1112basic_stringIcSt11char_traitsIcESaIcEED1Ev(ptr noundef nonnull align 8 dereferenceable(32) %9) #18
  br label %45

32:                                               ; preds = %18, %13
  %33 = load ptr, ptr %4, align 8
  %34 = getelementptr inbounds i8, ptr %33, i64 16
  %35 = load ptr, ptr %34, align 8
  %36 = call noundef zeroext i1 %35(ptr noundef nonnull align 8 dereferenceable(16) %4, i32 noundef %12)
  %37 = load i32, ptr @_ZN5Error8r_error_E, align 4
  %.not29 = icmp eq i32 %37, 0
  br i1 %.not29, label %38, label %44

38:                                               ; preds = %32, %6
  %39 = getelementptr inbounds i8, ptr %0, i64 56
  %40 = load ptr, ptr %39, align 8
  %41 = load ptr, ptr %40, align 8
  %42 = getelementptr inbounds i8, ptr %41, i64 32
  %43 = load ptr, ptr %42, align 8
  call void %43(ptr noundef nonnull align 8 dereferenceable(8) %40, i32 noundef %12, i32 noundef %3, i32 noundef %2)
  br label %44

44:                                               ; preds = %32, %38
  %.020 = phi i32 [ %12, %38 ], [ -1, %32 ]
  ret i32 %.020

45:                                               ; preds = %28, %30, %24, %26
  %.sink = phi ptr [ %8, %26 ], [ %8, %24 ], [ %10, %30 ], [ %10, %28 ]
  %.pn26.pn = phi { ptr, i32 } [ %27, %26 ], [ %25, %24 ], [ %31, %30 ], [ %29, %28 ]
  call void @_ZNSaIcED1Ev(ptr noundef nonnull align 1 dereferenceable(1) %.sink) #18
  resume { ptr, i32 } %.pn26.pn
}